; ModuleID = '55/621.c'
source_filename = "55/621.c"
target datalayout = "e-m:e-p270:32:32-p271:32:32-p272:64:64-i64:64-f80:128-n8:16:32:64-S128"
target triple = "x86_64-pc-linux-gnu"

@.str = private unnamed_addr constant [9 x i8] c"%d %s %d\00", align 1
@.str.1 = private unnamed_addr constant [4 x i8] c"%s\0A\00", align 1

; Function Attrs: noinline nounwind uwtable
define dso_local void @Reverse(i8* %0) #0 {
  %2 = alloca i8*, align 8
  %3 = alloca i32, align 4
  %4 = alloca i32, align 4
  %5 = alloca i8, align 1
  store i8* %0, i8** %2, align 8
  %6 = load i8*, i8** %2, align 8
  %7 = call i64 @strlen(i8* %6) #4
  %8 = trunc i64 %7 to i32
  store i32 %8, i32* %3, align 4
  store i32 0, i32* %4, align 4
  br label %9

9:                                                ; preds = %40, %1
  %10 = load i32, i32* %4, align 4
  %11 = load i32, i32* %3, align 4
  %12 = sdiv i32 %11, 2
  %13 = icmp slt i32 %10, %12
  br i1 %13, label %14, label %43

14:                                               ; preds = %9
  %15 = load i8*, i8** %2, align 8
  %16 = load i32, i32* %4, align 4
  %17 = sext i32 %16 to i64
  %18 = getelementptr inbounds i8, i8* %15, i64 %17
  %19 = load i8, i8* %18, align 1
  store i8 %19, i8* %5, align 1
  %20 = load i8*, i8** %2, align 8
  %21 = load i32, i32* %3, align 4
  %22 = load i32, i32* %4, align 4
  %23 = sub nsw i32 %21, %22
  %24 = sub nsw i32 %23, 1
  %25 = sext i32 %24 to i64
  %26 = getelementptr inbounds i8, i8* %20, i64 %25
  %27 = load i8, i8* %26, align 1
  %28 = load i8*, i8** %2, align 8
  %29 = load i32, i32* %4, align 4
  %30 = sext i32 %29 to i64
  %31 = getelementptr inbounds i8, i8* %28, i64 %30
  store i8 %27, i8* %31, align 1
  %32 = load i8, i8* %5, align 1
  %33 = load i8*, i8** %2, align 8
  %34 = load i32, i32* %3, align 4
  %35 = load i32, i32* %4, align 4
  %36 = sub nsw i32 %34, %35
  %37 = sub nsw i32 %36, 1
  %38 = sext i32 %37 to i64
  %39 = getelementptr inbounds i8, i8* %33, i64 %38
  store i8 %32, i8* %39, align 1
  br label %40

40:                                               ; preds = %14
  %41 = load i32, i32* %4, align 4
  %42 = add nsw i32 %41, 1
  store i32 %42, i32* %4, align 4
  br label %9

43:                                               ; preds = %9
  ret void
}

; Function Attrs: nounwind readonly
declare dso_local i64 @strlen(i8*) #1

; Function Attrs: noinline nounwind uwtable
define dso_local i32 @main() #0 {
  %1 = alloca i32, align 4
  %2 = alloca i32, align 4
  %3 = alloca i32, align 4
  %4 = alloca i32, align 4
  %5 = alloca i32, align 4
  %6 = alloca i32, align 4
  %7 = alloca i32, align 4
  %8 = alloca i32, align 4
  %9 = alloca i32, align 4
  %10 = alloca i32, align 4
  %11 = alloca [100 x i8], align 16
  %12 = alloca [1000 x i8], align 16
  %13 = alloca i8, align 1
  store i32 0, i32* %1, align 4
  store i32 0, i32* %5, align 4
  store i32 1, i32* %6, align 4
  %14 = getelementptr inbounds [100 x i8], [100 x i8]* %11, i64 0, i64 0
  %15 = call i32 (i8*, ...) @__isoc99_scanf(i8* getelementptr inbounds ([9 x i8], [9 x i8]* @.str, i64 0, i64 0), i32* %2, i8* %14, i32* %3)
  %16 = getelementptr inbounds [100 x i8], [100 x i8]* %11, i64 0, i64 0
  %17 = call i64 @strlen(i8* %16) #4
  %18 = trunc i64 %17 to i32
  store i32 %18, i32* %4, align 4
  store i32 0, i32* %9, align 4
  br label %19

19:                                               ; preds = %93, %0
  %20 = load i32, i32* %9, align 4
  %21 = load i32, i32* %4, align 4
  %22 = icmp slt i32 %20, %21
  br i1 %22, label %23, label %96

23:                                               ; preds = %19
  %24 = load i32, i32* %4, align 4
  %25 = sub nsw i32 %24, 1
  %26 = load i32, i32* %9, align 4
  %27 = sub nsw i32 %25, %26
  %28 = sext i32 %27 to i64
  %29 = getelementptr inbounds [100 x i8], [100 x i8]* %11, i64 0, i64 %28
  %30 = load i8, i8* %29, align 1
  %31 = sext i8 %30 to i32
  %32 = icmp slt i32 %31, 58
  br i1 %32, label %33, label %43

33:                                               ; preds = %23
  %34 = load i32, i32* %4, align 4
  %35 = sub nsw i32 %34, 1
  %36 = load i32, i32* %9, align 4
  %37 = sub nsw i32 %35, %36
  %38 = sext i32 %37 to i64
  %39 = getelementptr inbounds [100 x i8], [100 x i8]* %11, i64 0, i64 %38
  %40 = load i8, i8* %39, align 1
  %41 = sext i8 %40 to i32
  %42 = sub nsw i32 %41, 48
  store i32 %42, i32* %8, align 4
  br label %84

43:                                               ; preds = %23
  %44 = load i32, i32* %4, align 4
  %45 = sub nsw i32 %44, 1
  %46 = load i32, i32* %9, align 4
  %47 = sub nsw i32 %45, %46
  %48 = sext i32 %47 to i64
  %49 = getelementptr inbounds [100 x i8], [100 x i8]* %11, i64 0, i64 %48
  %50 = load i8, i8* %49, align 1
  %51 = sext i8 %50 to i32
  %52 = icmp sge i32 %51, 97
  br i1 %52, label %53, label %73

53:                                               ; preds = %43
  %54 = load i32, i32* %4, align 4
  %55 = load i32, i32* %9, align 4
  %56 = sub nsw i32 %54, %55
  %57 = sub nsw i32 %56, 1
  %58 = sext i32 %57 to i64
  %59 = getelementptr inbounds [100 x i8], [100 x i8]* %11, i64 0, i64 %58
  %60 = load i8, i8* %59, align 1
  %61 = sext i8 %60 to i32
  %62 = icmp sle i32 %61, 122
  br i1 %62, label %63, label %73

63:                                               ; preds = %53
  %64 = load i32, i32* %4, align 4
  %65 = sub nsw i32 %64, 1
  %66 = load i32, i32* %9, align 4
  %67 = sub nsw i32 %65, %66
  %68 = sext i32 %67 to i64
  %69 = getelementptr inbounds [100 x i8], [100 x i8]* %11, i64 0, i64 %68
  %70 = load i8, i8* %69, align 1
  %71 = sext i8 %70 to i32
  %72 = sub nsw i32 %71, 87
  store i32 %72, i32* %8, align 4
  br label %83

73:                                               ; preds = %53, %43
  %74 = load i32, i32* %4, align 4
  %75 = sub nsw i32 %74, 1
  %76 = load i32, i32* %9, align 4
  %77 = sub nsw i32 %75, %76
  %78 = sext i32 %77 to i64
  %79 = getelementptr inbounds [100 x i8], [100 x i8]* %11, i64 0, i64 %78
  %80 = load i8, i8* %79, align 1
  %81 = sext i8 %80 to i32
  %82 = sub nsw i32 %81, 55
  store i32 %82, i32* %8, align 4
  br label %83

83:                                               ; preds = %73, %63
  br label %84

84:                                               ; preds = %83, %33
  %85 = load i32, i32* %5, align 4
  %86 = load i32, i32* %8, align 4
  %87 = load i32, i32* %6, align 4
  %88 = mul nsw i32 %86, %87
  %89 = add nsw i32 %85, %88
  store i32 %89, i32* %5, align 4
  %90 = load i32, i32* %6, align 4
  %91 = load i32, i32* %2, align 4
  %92 = mul nsw i32 %90, %91
  store i32 %92, i32* %6, align 4
  br label %93

93:                                               ; preds = %84
  %94 = load i32, i32* %9, align 4
  %95 = add nsw i32 %94, 1
  store i32 %95, i32* %9, align 4
  br label %19

96:                                               ; preds = %19
  %97 = getelementptr inbounds [1000 x i8], [1000 x i8]* %12, i64 0, i64 0
  call void @llvm.memset.p0i8.i64(i8* align 16 %97, i8 0, i64 1000, i1 false)
  store i32 0, i32* %9, align 4
  %98 = load i32, i32* %5, align 4
  store i32 %98, i32* %7, align 4
  br label %99

99:                                               ; preds = %127, %96
  %100 = load i32, i32* %7, align 4
  %101 = load i32, i32* %3, align 4
  %102 = srem i32 %100, %101
  store i32 %102, i32* %8, align 4
  %103 = load i32, i32* %7, align 4
  %104 = load i32, i32* %3, align 4
  %105 = sdiv i32 %103, %104
  store i32 %105, i32* %7, align 4
  %106 = load i32, i32* %8, align 4
  %107 = icmp slt i32 %106, 10
  br i1 %107, label %108, label %115

108:                                              ; preds = %99
  %109 = load i32, i32* %8, align 4
  %110 = add nsw i32 %109, 48
  %111 = trunc i32 %110 to i8
  %112 = load i32, i32* %9, align 4
  %113 = sext i32 %112 to i64
  %114 = getelementptr inbounds [1000 x i8], [1000 x i8]* %12, i64 0, i64 %113
  store i8 %111, i8* %114, align 1
  br label %122

115:                                              ; preds = %99
  %116 = load i32, i32* %8, align 4
  %117 = add nsw i32 %116, 55
  %118 = trunc i32 %117 to i8
  %119 = load i32, i32* %9, align 4
  %120 = sext i32 %119 to i64
  %121 = getelementptr inbounds [1000 x i8], [1000 x i8]* %12, i64 0, i64 %120
  store i8 %118, i8* %121, align 1
  br label %122

122:                                              ; preds = %115, %108
  %123 = load i32, i32* %7, align 4
  %124 = icmp eq i32 %123, 0
  br i1 %124, label %125, label %126

125:                                              ; preds = %122
  br label %130

126:                                              ; preds = %122
  br label %127

127:                                              ; preds = %126
  %128 = load i32, i32* %9, align 4
  %129 = add nsw i32 %128, 1
  store i32 %129, i32* %9, align 4
  br label %99

130:                                              ; preds = %125
  %131 = getelementptr inbounds [1000 x i8], [1000 x i8]* %12, i64 0, i64 0
  call void @Reverse(i8* %131)
  %132 = getelementptr inbounds [1000 x i8], [1000 x i8]* %12, i64 0, i64 0
  %133 = call i32 (i8*, ...) @printf(i8* getelementptr inbounds ([4 x i8], [4 x i8]* @.str.1, i64 0, i64 0), i8* %132)
  ret i32 0
}

declare dso_local i32 @__isoc99_scanf(i8*, ...) #2

; Function Attrs: argmemonly nounwind willreturn
declare void @llvm.memset.p0i8.i64(i8* nocapture writeonly, i8, i64, i1 immarg) #3

declare dso_local i32 @printf(i8*, ...) #2


!llvm.module.flags = !{!0}
!llvm.ident = !{!1}

!0 = !{i32 1, !"wchar_size", i32 4}
!1 = !{!"clang version 10.0.0-4ubuntu1 "}
